target datalayout = "e-m:e-p270:32:32-p271:32:32-p272:64:64-i64:64-i128:128-f80:128-n8:16:32:64-S128"
target triple = "x86_64-pc-linux-gnu"

%struct._header_field_info = type { ptr, ptr, i32, i32, ptr, i64, ptr, i32, i32, i32, i32, ptr }
%struct._dcerpc_info = type { ptr, i32, i64, i8, i8, i8, i32, i32, i32, i32, i32, i32, i32, i32, ptr, ptr, ptr, ptr, %struct.anon }
%struct.anon = type { i8, ptr, ptr, ptr, i8 }

@ett_winreg_winreg_String = internal global i32 0, align 4
@hf_winreg_winreg_String_name_len = internal global i32 0, align 4
@hf_winreg_winreg_String_name_size = internal global i32 0, align 4
@.str.337 = private unnamed_addr constant [5 x i8] c"%s: \00", align 1

; Function Attrs: null_pointer_is_valid sspstrong uwtable
define internal i32 @winreg_dissect_element_String_name_size(ptr noundef %0, i32 noundef %1, ptr noundef %2, ptr noundef %3, ptr noundef %4, ptr noundef %5) #0 {
  %7 = alloca ptr, align 8
  %8 = alloca i32, align 4
  %9 = alloca ptr, align 8
  %10 = alloca ptr, align 8
  %11 = alloca ptr, align 8
  %12 = alloca ptr, align 8
  store ptr %0, ptr %7, align 8
  store i32 %1, ptr %8, align 4
  store ptr %2, ptr %9, align 8
  store ptr %3, ptr %10, align 8
  store ptr %4, ptr %11, align 8
  store ptr %5, ptr %12, align 8
  %13 = load ptr, ptr %7, align 8
  %14 = load i32, ptr %8, align 4
  %15 = load ptr, ptr %9, align 8
  %16 = load ptr, ptr %10, align 8
  %17 = load ptr, ptr %11, align 8
  %18 = load ptr, ptr %12, align 8
  %19 = load i32, ptr @hf_winreg_winreg_String_name_size, align 4
  %20 = call i32 @PIDL_dissect_uint16(ptr noundef %13, i32 noundef %14, ptr noundef %15, ptr noundef %16, ptr noundef %17, ptr noundef %18, i32 noundef %19, i32 noundef 0)
  store i32 %20, ptr %8, align 4
  %21 = load i32, ptr %8, align 4
  ret i32 %21
}

; Function Attrs: null_pointer_is_valid sspstrong uwtable
define internal i32 @winreg_dissect_element_String_name_len(ptr noundef %0, i32 noundef %1, ptr noundef %2, ptr noundef %3, ptr noundef %4, ptr noundef %5) #0 {
  %7 = alloca ptr, align 8
  %8 = alloca i32, align 4
  %9 = alloca ptr, align 8
  %10 = alloca ptr, align 8
  %11 = alloca ptr, align 8
  %12 = alloca ptr, align 8
  store ptr %0, ptr %7, align 8
  store i32 %1, ptr %8, align 4
  store ptr %2, ptr %9, align 8
  store ptr %3, ptr %10, align 8
  store ptr %4, ptr %11, align 8
  store ptr %5, ptr %12, align 8
  %13 = load ptr, ptr %7, align 8
  %14 = load i32, ptr %8, align 4
  %15 = load ptr, ptr %9, align 8
  %16 = load ptr, ptr %10, align 8
  %17 = load ptr, ptr %11, align 8
  %18 = load ptr, ptr %12, align 8
  %19 = load i32, ptr @hf_winreg_winreg_String_name_len, align 4
  %20 = call i32 @PIDL_dissect_uint16(ptr noundef %13, i32 noundef %14, ptr noundef %15, ptr noundef %16, ptr noundef %17, ptr noundef %18, i32 noundef %19, i32 noundef 0)
  store i32 %20, ptr %8, align 4
  %21 = load i32, ptr %8, align 4
  ret i32 %21
}

; Function Attrs: null_pointer_is_valid sspstrong uwtable
define internal i32 @cnf_dissect_winreg_String(ptr noundef %0, i32 noundef %1, ptr noundef %2, ptr noundef %3, ptr noundef %4, ptr noundef %5, i32 noundef %6, i32 noundef %7) #0 {
  %9 = alloca ptr, align 8
  %10 = alloca i32, align 4
  %11 = alloca ptr, align 8
  %12 = alloca ptr, align 8
  %13 = alloca ptr, align 8
  %14 = alloca ptr, align 8
  %15 = alloca i32, align 4
  %16 = alloca i32, align 4
  %17 = alloca ptr, align 8
  %18 = alloca ptr, align 8
  %19 = alloca i32, align 4
  %20 = alloca ptr, align 8
  store ptr %0, ptr %9, align 8
  store i32 %1, ptr %10, align 4
  store ptr %2, ptr %11, align 8
  store ptr %3, ptr %12, align 8
  store ptr %4, ptr %13, align 8
  store ptr %5, ptr %14, align 8
  store i32 %6, ptr %15, align 4
  store i32 %7, ptr %16, align 4
  call void @llvm.lifetime.start.p0(i64 8, ptr %17) #3
  store ptr null, ptr %17, align 8
  call void @llvm.lifetime.start.p0(i64 8, ptr %18) #3
  store ptr null, ptr %18, align 8
  call void @llvm.lifetime.start.p0(i64 4, ptr %19) #3
  call void @llvm.lifetime.start.p0(i64 8, ptr %20) #3
  %21 = load ptr, ptr %13, align 8
  %22 = getelementptr inbounds nuw %struct._dcerpc_info, ptr %21, i32 0, i32 4
  %23 = load i8, ptr %22, align 1, !range !6, !noundef !7
  %24 = trunc i8 %23 to i1
  br i1 %24, label %34, label %25

25:                                               ; preds = %8
  %26 = load i32, ptr %10, align 4
  %27 = and i32 %26, 3
  %28 = icmp ne i32 %27, 0
  br i1 %28, label %29, label %33

29:                                               ; preds = %25
  %30 = load i32, ptr %10, align 4
  %31 = and i32 %30, -4
  %32 = add i32 %31, 4
  store i32 %32, ptr %10, align 4
  br label %33

33:                                               ; preds = %29, %25
  br label %34

34:                                               ; preds = %33, %8
  %35 = load i32, ptr %10, align 4
  store i32 %35, ptr %19, align 4
  %36 = load i32, ptr %16, align 4
  %37 = call ptr @proto_registrar_get_nth(i32 noundef %36)
  store ptr %37, ptr %20, align 8
  %38 = load ptr, ptr %12, align 8
  %39 = icmp ne ptr %38, null
  br i1 %39, label %40, label %49

40:                                               ; preds = %34
  %41 = load ptr, ptr %12, align 8
  %42 = load ptr, ptr %9, align 8
  %43 = load i32, ptr %10, align 4
  %44 = load i32, ptr @ett_winreg_winreg_String, align 4
  %45 = load ptr, ptr %20, align 8
  %46 = getelementptr inbounds nuw %struct._header_field_info, ptr %45, i32 0, i32 0
  %47 = load ptr, ptr %46, align 8
  %48 = call ptr (ptr, ptr, i32, i32, i32, ptr, ptr, ...) @proto_tree_add_subtree_format(ptr noundef %41, ptr noundef %42, i32 noundef %43, i32 noundef 0, i32 noundef %44, ptr noundef %17, ptr noundef @.str.337, ptr noundef %47)
  store ptr %48, ptr %18, align 8
  br label %49

49:                                               ; preds = %40, %34
  %50 = load ptr, ptr %9, align 8
  %51 = load i32, ptr %10, align 4
  %52 = load ptr, ptr %11, align 8
  %53 = load ptr, ptr %18, align 8
  %54 = load ptr, ptr %13, align 8
  %55 = load ptr, ptr %14, align 8
  %56 = call i32 @winreg_dissect_element_String_name_len(ptr noundef %50, i32 noundef %51, ptr noundef %52, ptr noundef %53, ptr noundef %54, ptr noundef %55)
  store i32 %56, ptr %10, align 4
  %57 = load ptr, ptr %9, align 8
  %58 = load i32, ptr %10, align 4
  %59 = load ptr, ptr %11, align 8
  %60 = load ptr, ptr %18, align 8
  %61 = load ptr, ptr %13, align 8
  %62 = load ptr, ptr %14, align 8
  %63 = call i32 @winreg_dissect_element_String_name_size(ptr noundef %57, i32 noundef %58, ptr noundef %59, ptr noundef %60, ptr noundef %61, ptr noundef %62)
  store i32 %63, ptr %10, align 4
  %64 = load ptr, ptr %9, align 8
  %65 = load i32, ptr %10, align 4
  %66 = load ptr, ptr %11, align 8
  %67 = load ptr, ptr %18, align 8
  %68 = load ptr, ptr %13, align 8
  %69 = load ptr, ptr %14, align 8
  %70 = load ptr, ptr %20, align 8
  %71 = getelementptr inbounds nuw %struct._header_field_info, ptr %70, i32 0, i32 0
  %72 = load ptr, ptr %71, align 8
  %73 = load i32, ptr %16, align 4
  %74 = load i32, ptr %15, align 4
  %75 = zext i32 %74 to i64
  %76 = inttoptr i64 %75 to ptr
  %77 = call i32 @dissect_ndr_pointer_cb(ptr noundef %64, i32 noundef %65, ptr noundef %66, ptr noundef %67, ptr noundef %68, ptr noundef %69, ptr noundef @dissect_ndr_wchar_cvstring, i32 noundef 2, ptr noundef %72, i32 noundef %73, ptr noundef @cb_wstr_postprocess, ptr noundef %76)
  store i32 %77, ptr %10, align 4
  %78 = load ptr, ptr %17, align 8
  %79 = load i32, ptr %10, align 4
  %80 = load i32, ptr %19, align 4
  %81 = sub i32 %79, %80
  call void @proto_item_set_len(ptr noundef %78, i32 noundef %81)
  %82 = load i32, ptr %10, align 4
  call void @llvm.lifetime.end.p0(i64 8, ptr %20) #3
  call void @llvm.lifetime.end.p0(i64 4, ptr %19) #3
  call void @llvm.lifetime.end.p0(i64 8, ptr %18) #3
  call void @llvm.lifetime.end.p0(i64 8, ptr %17) #3
  ret i32 %82
}