; Function Attrs: null_pointer_is_valid sspstrong uwtable
define internal fastcc i32 @cnf_dissect_winreg_String(ptr noundef %0, i32 noundef %1, ptr noundef %2, ptr noundef %3, ptr noundef %4, ptr noundef %5, i32 noundef range(i32 0, 805306371) %6, i32 noundef %7) unnamed_addr #0 {
  %9 = alloca ptr, align 8
  call void @llvm.lifetime.start.p0(i64 8, ptr nonnull %9) #3
  store ptr null, ptr %9, align 8
  %10 = getelementptr inbounds nuw i8, ptr %4, i64 25
  %11 = load i8, ptr %10, align 1, !range !6, !noundef !7
  %12 = trunc nuw i8 %11 to i1
  %13 = and i32 %1, 3
  %.not = icmp eq i32 %13, 0
  %or.cond = or i1 %.not, %12
  %14 = and i32 %1, -4
  %15 = add i32 %14, 4
  %.0 = select i1 %or.cond, i32 %1, i32 %15
  %16 = tail call ptr @proto_registrar_get_nth(i32 noundef %7)
  %.not35 = icmp eq ptr %3, null
  br i1 %.not35, label %21, label %17

17:                                               ; preds = %8
  %18 = load i32, ptr @ett_winreg_winreg_String, align 4
  %19 = load ptr, ptr %16, align 8
  %20 = call ptr (ptr, ptr, i32, i32, i32, ptr, ptr, ...) @proto_tree_add_subtree_format(ptr noundef nonnull %3, ptr noundef %0, i32 noundef %.0, i32 noundef 0, i32 noundef %18, ptr noundef nonnull %9, ptr noundef nonnull @.str.337, ptr noundef %19)
  br label %21

21:                                               ; preds = %17, %8
  %.033 = phi ptr [ %20, %17 ], [ null, %8 ]
  %22 = load i32, ptr @hf_winreg_winreg_String_name_len, align 4
  %23 = call i32 @PIDL_dissect_uint16(ptr noundef %0, i32 noundef %.0, ptr noundef %2, ptr noundef %.033, ptr noundef %4, ptr noundef %5, i32 noundef %22, i32 noundef 0)
  %24 = load i32, ptr @hf_winreg_winreg_String_name_size, align 4
  %25 = call i32 @PIDL_dissect_uint16(ptr noundef %0, i32 noundef %23, ptr noundef %2, ptr noundef %.033, ptr noundef %4, ptr noundef %5, i32 noundef %24, i32 noundef 0)
  %26 = load ptr, ptr %16, align 8
  %27 = zext nneg i32 %6 to i64
  %28 = inttoptr i64 %27 to ptr
  %29 = call i32 @dissect_ndr_pointer_cb(ptr noundef %0, i32 noundef %25, ptr noundef %2, ptr noundef %.033, ptr noundef %4, ptr noundef %5, ptr noundef nonnull @dissect_ndr_wchar_cvstring, i32 noundef 2, ptr noundef %26, i32 noundef %7, ptr noundef nonnull @cb_wstr_postprocess, ptr noundef %28)
  %30 = load ptr, ptr %9, align 8
  %31 = sub i32 %29, %.0
  call void @proto_item_set_len(ptr noundef %30, i32 noundef %31)
  call void @llvm.lifetime.end.p0(i64 8, ptr nonnull %9) #3
  ret i32 %29
}